target datalayout = "e-m:e-p270:32:32-p271:32:32-p272:64:64-i64:64-i128:128-f80:128-n8:16:32:64-S128"
target triple = "x86_64-pc-linux-gnu"

%"struct.duckdb_zstd::DTableDesc" = type { i8, i8, i8, i8 }

; Function Attrs: mustprogress nounwind uwtable
define internal i32 @_ZN11duckdb_zstdL17HUF_getDTableDescEPKj(ptr noundef %0) #3 {
  %2 = alloca %"struct.duckdb_zstd::DTableDesc", align 1
  %3 = alloca ptr, align 8
  store ptr %0, ptr %3, align 8, !tbaa !3
  %4 = load ptr, ptr %3, align 8, !tbaa !3
  call void @llvm.memcpy.p0.p0.i64(ptr align 1 %2, ptr align 4 %4, i64 4, i1 false)
  %5 = load i32, ptr %2, align 1
  ret i32 %5
}

; Function Attrs: mustprogress uwtable
define noundef i64 @_ZN11duckdb_zstd28HUF_decompress4X_usingDTableEPvmPKvmPKji(ptr noundef %0, i64 noundef %1, ptr noundef %2, i64 noundef %3, ptr noundef %4, i32 noundef %5) #0 {
  %7 = alloca ptr, align 8
  %8 = alloca i64, align 8
  %9 = alloca ptr, align 8
  %10 = alloca i64, align 8
  %11 = alloca ptr, align 8
  %12 = alloca i32, align 4
  %13 = alloca %"struct.duckdb_zstd::DTableDesc", align 1
  store ptr %0, ptr %7, align 8, !tbaa !8
  store i64 %1, ptr %8, align 8, !tbaa !9
  store ptr %2, ptr %9, align 8, !tbaa !8
  store i64 %3, ptr %10, align 8, !tbaa !9
  store ptr %4, ptr %11, align 8, !tbaa !3
  store i32 %5, ptr %12, align 4, !tbaa !11
  call void @llvm.lifetime.start.p0(i64 4, ptr %13) #14
  %14 = load ptr, ptr %11, align 8, !tbaa !3
  %15 = call i32 @_ZN11duckdb_zstdL17HUF_getDTableDescEPKj(ptr noundef %14)
  store i32 %15, ptr %13, align 1
  %16 = getelementptr inbounds nuw %"struct.duckdb_zstd::DTableDesc", ptr %13, i32 0, i32 1
  %17 = load i8, ptr %16, align 1, !tbaa !15
  %18 = icmp ne i8 %17, 0
  br i1 %18, label %19, label %27

19:                                               ; preds = %6
  %20 = load ptr, ptr %7, align 8, !tbaa !8
  %21 = load i64, ptr %8, align 8, !tbaa !9
  %22 = load ptr, ptr %9, align 8, !tbaa !8
  %23 = load i64, ptr %10, align 8, !tbaa !9
  %24 = load ptr, ptr %11, align 8, !tbaa !3
  %25 = load i32, ptr %12, align 4, !tbaa !11
  %26 = call noundef i64 @_ZN11duckdb_zstdL38HUF_decompress4X2_usingDTable_internalEPvmPKvmPKji(ptr noundef %20, i64 noundef %21, ptr noundef %22, i64 noundef %23, ptr noundef %24, i32 noundef %25)
  br label %35

27:                                               ; preds = %6
  %28 = load ptr, ptr %7, align 8, !tbaa !8
  %29 = load i64, ptr %8, align 8, !tbaa !9
  %30 = load ptr, ptr %9, align 8, !tbaa !8
  %31 = load i64, ptr %10, align 8, !tbaa !9
  %32 = load ptr, ptr %11, align 8, !tbaa !3
  %33 = load i32, ptr %12, align 4, !tbaa !11
  %34 = call noundef i64 @_ZN11duckdb_zstdL38HUF_decompress4X1_usingDTable_internalEPvmPKvmPKji(ptr noundef %28, i64 noundef %29, ptr noundef %30, i64 noundef %31, ptr noundef %32, i32 noundef %33)
  br label %35

35:                                               ; preds = %27, %19
  %36 = phi i64 [ %26, %19 ], [ %34, %27 ]
  call void @llvm.lifetime.end.p0(i64 4, ptr %13) #14
  ret i64 %36
}