; Function Attrs: mustprogress nofree norecurse nosync nounwind memory(readwrite, inaccessiblemem: none) uwtable
define noundef i64 @_ZN11duckdb_zstd28HUF_decompress4X_usingDTableEPvmPKvmPKji(ptr noundef %0, i64 noundef %1, ptr noundef %2, i64 noundef %3, ptr noundef %4, i32 noundef %5) local_unnamed_addr #5 {
  %.sroa.0.0.copyload.i = load i32, ptr %4, align 4
  %7 = and i32 %.sroa.0.0.copyload.i, 65280
  %.not = icmp eq i32 %7, 0
  br i1 %.not, label %10, label %8

8:                                                ; preds = %6
  %9 = tail call fastcc noundef i64 @_ZN11duckdb_zstdL38HUF_decompress4X2_usingDTable_internalEPvmPKvmPKji(ptr noundef %0, i64 noundef %1, ptr noundef %2, i64 noundef %3, ptr noundef nonnull %4, i32 noundef %5)
  br label %12

10:                                               ; preds = %6
  %11 = tail call fastcc noundef i64 @_ZN11duckdb_zstdL38HUF_decompress4X1_usingDTable_internalEPvmPKvmPKji(ptr noundef %0, i64 noundef %1, ptr noundef %2, i64 noundef %3, ptr noundef nonnull %4, i32 noundef %5)
  br label %12

12:                                               ; preds = %10, %8
  %13 = phi i64 [ %9, %8 ], [ %11, %10 ]
  ret i64 %13
}